target datalayout = "e-m:e-p270:32:32-p271:32:32-p272:64:64-i64:64-i128:128-f80:128-n8:16:32:64-S128"
target triple = "x86_64-unknown-linux-gnu"

%"class.std::vector.400" = type { %"struct.std::_Vector_base.401" }
%"struct.std::_Vector_base.401" = type { %"struct.std::_Vector_base<cvc5::internal::NodeTemplate<true>, std::allocator<cvc5::internal::NodeTemplate<true>>>::_Vector_impl" }
%"struct.std::_Vector_base<cvc5::internal::NodeTemplate<true>, std::allocator<cvc5::internal::NodeTemplate<true>>>::_Vector_impl" = type { %"struct.std::_Vector_base<cvc5::internal::NodeTemplate<true>, std::allocator<cvc5::internal::NodeTemplate<true>>>::_Vector_impl_data" }
%"struct.std::_Vector_base<cvc5::internal::NodeTemplate<true>, std::allocator<cvc5::internal::NodeTemplate<true>>>::_Vector_impl_data" = type { ptr, ptr, ptr }
%"class.cvc5::internal::theory::quantifiers::EnumStreamPermutation::PermutationState" = type <{ %"class.std::vector.400", %"class.std::vector.533", %"class.std::vector.533", i32, [4 x i8] }>
%"class.std::vector.533" = type { %"struct.std::_Vector_base.534" }
%"struct.std::_Vector_base.534" = type { %"struct.std::_Vector_base<unsigned int, std::allocator<unsigned int>>::_Vector_impl" }
%"struct.std::_Vector_base<unsigned int, std::allocator<unsigned int>>::_Vector_impl" = type { %"struct.std::_Vector_base<unsigned int, std::allocator<unsigned int>>::_Vector_impl_data" }
%"struct.std::_Vector_base<unsigned int, std::allocator<unsigned int>>::_Vector_impl_data" = type { ptr, ptr, ptr }
%"class.__gnu_cxx::__normal_iterator.542" = type { ptr }

; Function Attrs: mustprogress nounwind uwtable
define linkonce_odr void @_ZSt9__fill_a1IPjiEN9__gnu_cxx11__enable_ifIXsr11__is_scalarIT0_EE7__valueEvE6__typeET_S6_RKS3_(ptr noundef %__first, ptr noundef %__last, ptr noundef nonnull align 4 dereferenceable(4) %__value) #5 comdat {
entry:
  %__first.addr = alloca ptr, align 8
  %__last.addr = alloca ptr, align 8
  %__value.addr = alloca ptr, align 8
  %__tmp = alloca i32, align 4
  store ptr %__first, ptr %__first.addr, align 8
  store ptr %__last, ptr %__last.addr, align 8
  store ptr %__value, ptr %__value.addr, align 8
  %0 = load ptr, ptr %__value.addr, align 8
  %1 = load i32, ptr %0, align 4
  store i32 %1, ptr %__tmp, align 4
  br label %for.cond

for.cond:                                         ; preds = %for.inc, %entry
  %2 = load ptr, ptr %__first.addr, align 8
  %3 = load ptr, ptr %__last.addr, align 8
  %cmp = icmp ne ptr %2, %3
  br i1 %cmp, label %for.body, label %for.end

for.body:                                         ; preds = %for.cond
  %4 = load i32, ptr %__tmp, align 4
  %5 = load ptr, ptr %__first.addr, align 8
  store i32 %4, ptr %5, align 4
  br label %for.inc

for.inc:                                          ; preds = %for.body
  %6 = load ptr, ptr %__first.addr, align 8
  %incdec.ptr = getelementptr inbounds i32, ptr %6, i32 1
  store ptr %incdec.ptr, ptr %__first.addr, align 8
  br label %for.cond, !llvm.loop !92

for.end:                                          ; preds = %for.cond
  ret void
}

; Function Attrs: mustprogress nounwind uwtable
define linkonce_odr hidden noundef nonnull align 8 dereferenceable(8) ptr @_ZNK9__gnu_cxx17__normal_iteratorIPjSt6vectorIjSaIjEEE4baseEv(ptr noundef nonnull align 8 dereferenceable(8) %this) #5 comdat align 2 {
entry:
  %this.addr = alloca ptr, align 8
  store ptr %this, ptr %this.addr, align 8
  %this1 = load ptr, ptr %this.addr, align 8
  %_M_current = getelementptr inbounds %"class.__gnu_cxx::__normal_iterator.542", ptr %this1, i32 0, i32 0
  ret ptr %_M_current
}

; Function Attrs: mustprogress uwtable
define linkonce_odr void @_ZSt9__fill_a1IPjSt6vectorIjSaIjEEiEvN9__gnu_cxx17__normal_iteratorIT_T0_EES8_RKT1_(ptr %__first.coerce, ptr %__last.coerce, ptr noundef nonnull align 4 dereferenceable(4) %__value) #4 comdat {
entry:
  %__first = alloca %"class.__gnu_cxx::__normal_iterator.542", align 8
  %__last = alloca %"class.__gnu_cxx::__normal_iterator.542", align 8
  %__value.addr = alloca ptr, align 8
  %coerce.dive = getelementptr inbounds %"class.__gnu_cxx::__normal_iterator.542", ptr %__first, i32 0, i32 0
  store ptr %__first.coerce, ptr %coerce.dive, align 8
  %coerce.dive1 = getelementptr inbounds %"class.__gnu_cxx::__normal_iterator.542", ptr %__last, i32 0, i32 0
  store ptr %__last.coerce, ptr %coerce.dive1, align 8
  store ptr %__value, ptr %__value.addr, align 8
  %call = call noundef nonnull align 8 dereferenceable(8) ptr @_ZNK9__gnu_cxx17__normal_iteratorIPjSt6vectorIjSaIjEEE4baseEv(ptr noundef nonnull align 8 dereferenceable(8) %__first) #3
  %0 = load ptr, ptr %call, align 8
  %call2 = call noundef nonnull align 8 dereferenceable(8) ptr @_ZNK9__gnu_cxx17__normal_iteratorIPjSt6vectorIjSaIjEEE4baseEv(ptr noundef nonnull align 8 dereferenceable(8) %__last) #3
  %1 = load ptr, ptr %call2, align 8
  %2 = load ptr, ptr %__value.addr, align 8
  call void @_ZSt9__fill_a1IPjiEN9__gnu_cxx11__enable_ifIXsr11__is_scalarIT0_EE7__valueEvE6__typeET_S6_RKS3_(ptr noundef %0, ptr noundef %1, ptr noundef nonnull align 4 dereferenceable(4) %2)
  ret void
}

; Function Attrs: mustprogress nounwind uwtable
define linkonce_odr hidden noundef nonnull align 8 dereferenceable(8) ptr @_ZN9__gnu_cxx17__normal_iteratorIPjSt6vectorIjSaIjEEEppEv(ptr noundef nonnull align 8 dereferenceable(8) %this) #5 comdat align 2 {
entry:
  %this.addr = alloca ptr, align 8
  store ptr %this, ptr %this.addr, align 8
  %this1 = load ptr, ptr %this.addr, align 8
  %_M_current = getelementptr inbounds %"class.__gnu_cxx::__normal_iterator.542", ptr %this1, i32 0, i32 0
  %0 = load ptr, ptr %_M_current, align 8
  %incdec.ptr = getelementptr inbounds i32, ptr %0, i32 1
  store ptr %incdec.ptr, ptr %_M_current, align 8
  ret ptr %this1
}

; Function Attrs: mustprogress nounwind uwtable
define linkonce_odr hidden noundef nonnull align 4 dereferenceable(4) ptr @_ZNK9__gnu_cxx17__normal_iteratorIPjSt6vectorIjSaIjEEEdeEv(ptr noundef nonnull align 8 dereferenceable(8) %this) #5 comdat align 2 {
entry:
  %this.addr = alloca ptr, align 8
  store ptr %this, ptr %this.addr, align 8
  %this1 = load ptr, ptr %this.addr, align 8
  %_M_current = getelementptr inbounds %"class.__gnu_cxx::__normal_iterator.542", ptr %this1, i32 0, i32 0
  %0 = load ptr, ptr %_M_current, align 8
  ret ptr %0
}

; Function Attrs: mustprogress nounwind uwtable
define linkonce_odr noundef zeroext i1 @_ZN9__gnu_cxxneIPjSt6vectorIjSaIjEEEEbRKNS_17__normal_iteratorIT_T0_EESA_(ptr noundef nonnull align 8 dereferenceable(8) %__lhs, ptr noundef nonnull align 8 dereferenceable(8) %__rhs) #5 comdat {
entry:
  %__lhs.addr = alloca ptr, align 8
  %__rhs.addr = alloca ptr, align 8
  store ptr %__lhs, ptr %__lhs.addr, align 8
  store ptr %__rhs, ptr %__rhs.addr, align 8
  %0 = load ptr, ptr %__lhs.addr, align 8
  %call = call noundef nonnull align 8 dereferenceable(8) ptr @_ZNK9__gnu_cxx17__normal_iteratorIPjSt6vectorIjSaIjEEE4baseEv(ptr noundef nonnull align 8 dereferenceable(8) %0) #3
  %1 = load ptr, ptr %call, align 8
  %2 = load ptr, ptr %__rhs.addr, align 8
  %call1 = call noundef nonnull align 8 dereferenceable(8) ptr @_ZNK9__gnu_cxx17__normal_iteratorIPjSt6vectorIjSaIjEEE4baseEv(ptr noundef nonnull align 8 dereferenceable(8) %2) #3
  %3 = load ptr, ptr %call1, align 8
  %cmp = icmp ne ptr %1, %3
  ret i1 %cmp
}

; Function Attrs: mustprogress uwtable
define linkonce_odr void @_ZSt8__fill_aIN9__gnu_cxx17__normal_iteratorIPjSt6vectorIjSaIjEEEEiEvT_S7_RKT0_(ptr %__first.coerce, ptr %__last.coerce, ptr noundef nonnull align 4 dereferenceable(4) %__value) #4 comdat {
entry:
  %__first = alloca %"class.__gnu_cxx::__normal_iterator.542", align 8
  %__last = alloca %"class.__gnu_cxx::__normal_iterator.542", align 8
  %__value.addr = alloca ptr, align 8
  %agg.tmp = alloca %"class.__gnu_cxx::__normal_iterator.542", align 8
  %agg.tmp2 = alloca %"class.__gnu_cxx::__normal_iterator.542", align 8
  %coerce.dive = getelementptr inbounds %"class.__gnu_cxx::__normal_iterator.542", ptr %__first, i32 0, i32 0
  store ptr %__first.coerce, ptr %coerce.dive, align 8
  %coerce.dive1 = getelementptr inbounds %"class.__gnu_cxx::__normal_iterator.542", ptr %__last, i32 0, i32 0
  store ptr %__last.coerce, ptr %coerce.dive1, align 8
  store ptr %__value, ptr %__value.addr, align 8
  call void @llvm.memcpy.p0.p0.i64(ptr align 8 %agg.tmp, ptr align 8 %__first, i64 8, i1 false)
  call void @llvm.memcpy.p0.p0.i64(ptr align 8 %agg.tmp2, ptr align 8 %__last, i64 8, i1 false)
  %0 = load ptr, ptr %__value.addr, align 8
  %coerce.dive3 = getelementptr inbounds %"class.__gnu_cxx::__normal_iterator.542", ptr %agg.tmp, i32 0, i32 0
  %1 = load ptr, ptr %coerce.dive3, align 8
  %coerce.dive4 = getelementptr inbounds %"class.__gnu_cxx::__normal_iterator.542", ptr %agg.tmp2, i32 0, i32 0
  %2 = load ptr, ptr %coerce.dive4, align 8
  call void @_ZSt9__fill_a1IPjSt6vectorIjSaIjEEiEvN9__gnu_cxx17__normal_iteratorIT_T0_EES8_RKT1_(ptr %1, ptr %2, ptr noundef nonnull align 4 dereferenceable(4) %0)
  ret void
}

; Function Attrs: mustprogress nounwind uwtable
define linkonce_odr hidden void @_ZN9__gnu_cxx17__normal_iteratorIPjSt6vectorIjSaIjEEEC2ERKS1_(ptr noundef nonnull align 8 dereferenceable(8) %this, ptr noundef nonnull align 8 dereferenceable(8) %__i) unnamed_addr #5 comdat align 2 {
entry:
  %this.addr = alloca ptr, align 8
  %__i.addr = alloca ptr, align 8
  store ptr %this, ptr %this.addr, align 8
  store ptr %__i, ptr %__i.addr, align 8
  %this1 = load ptr, ptr %this.addr, align 8
  %_M_current = getelementptr inbounds %"class.__gnu_cxx::__normal_iterator.542", ptr %this1, i32 0, i32 0
  %0 = load ptr, ptr %__i.addr, align 8
  %1 = load ptr, ptr %0, align 8
  store ptr %1, ptr %_M_current, align 8
  ret void
}

; Function Attrs: mustprogress nounwind uwtable
define linkonce_odr void @_ZSt4iotaIN9__gnu_cxx17__normal_iteratorIPjSt6vectorIjSaIjEEEEiEvT_S7_T0_(ptr %__first.coerce, ptr %__last.coerce, i32 noundef %__value) #5 comdat {
entry:
  %__first = alloca %"class.__gnu_cxx::__normal_iterator.542", align 8
  %__last = alloca %"class.__gnu_cxx::__normal_iterator.542", align 8
  %__value.addr = alloca i32, align 4
  %coerce.dive = getelementptr inbounds %"class.__gnu_cxx::__normal_iterator.542", ptr %__first, i32 0, i32 0
  store ptr %__first.coerce, ptr %coerce.dive, align 8
  %coerce.dive1 = getelementptr inbounds %"class.__gnu_cxx::__normal_iterator.542", ptr %__last, i32 0, i32 0
  store ptr %__last.coerce, ptr %coerce.dive1, align 8
  store i32 %__value, ptr %__value.addr, align 4
  br label %for.cond

for.cond:                                         ; preds = %for.inc, %entry
  %call = call noundef zeroext i1 @_ZN9__gnu_cxxneIPjSt6vectorIjSaIjEEEEbRKNS_17__normal_iteratorIT_T0_EESA_(ptr noundef nonnull align 8 dereferenceable(8) %__first, ptr noundef nonnull align 8 dereferenceable(8) %__last) #3
  br i1 %call, label %for.body, label %for.end

for.body:                                         ; preds = %for.cond
  %0 = load i32, ptr %__value.addr, align 4
  %call2 = call noundef nonnull align 4 dereferenceable(4) ptr @_ZNK9__gnu_cxx17__normal_iteratorIPjSt6vectorIjSaIjEEEdeEv(ptr noundef nonnull align 8 dereferenceable(8) %__first) #3
  store i32 %0, ptr %call2, align 4
  %1 = load i32, ptr %__value.addr, align 4
  %inc = add nsw i32 %1, 1
  store i32 %inc, ptr %__value.addr, align 4
  br label %for.inc

for.inc:                                          ; preds = %for.body
  %call3 = call noundef nonnull align 8 dereferenceable(8) ptr @_ZN9__gnu_cxx17__normal_iteratorIPjSt6vectorIjSaIjEEEppEv(ptr noundef nonnull align 8 dereferenceable(8) %__first) #3
  br label %for.cond, !llvm.loop !32

for.end:                                          ; preds = %for.cond
  ret void
}

; Function Attrs: mustprogress uwtable
define linkonce_odr void @_ZSt4fillIN9__gnu_cxx17__normal_iteratorIPjSt6vectorIjSaIjEEEEiEvT_S7_RKT0_(ptr %__first.coerce, ptr %__last.coerce, ptr noundef nonnull align 4 dereferenceable(4) %__value) #4 comdat {
entry:
  %__first = alloca %"class.__gnu_cxx::__normal_iterator.542", align 8
  %__last = alloca %"class.__gnu_cxx::__normal_iterator.542", align 8
  %__value.addr = alloca ptr, align 8
  %agg.tmp = alloca %"class.__gnu_cxx::__normal_iterator.542", align 8
  %agg.tmp2 = alloca %"class.__gnu_cxx::__normal_iterator.542", align 8
  %coerce.dive = getelementptr inbounds %"class.__gnu_cxx::__normal_iterator.542", ptr %__first, i32 0, i32 0
  store ptr %__first.coerce, ptr %coerce.dive, align 8
  %coerce.dive1 = getelementptr inbounds %"class.__gnu_cxx::__normal_iterator.542", ptr %__last, i32 0, i32 0
  store ptr %__last.coerce, ptr %coerce.dive1, align 8
  store ptr %__value, ptr %__value.addr, align 8
  call void @llvm.memcpy.p0.p0.i64(ptr align 8 %agg.tmp, ptr align 8 %__first, i64 8, i1 false)
  call void @llvm.memcpy.p0.p0.i64(ptr align 8 %agg.tmp2, ptr align 8 %__last, i64 8, i1 false)
  %0 = load ptr, ptr %__value.addr, align 8
  %coerce.dive3 = getelementptr inbounds %"class.__gnu_cxx::__normal_iterator.542", ptr %agg.tmp, i32 0, i32 0
  %1 = load ptr, ptr %coerce.dive3, align 8
  %coerce.dive4 = getelementptr inbounds %"class.__gnu_cxx::__normal_iterator.542", ptr %agg.tmp2, i32 0, i32 0
  %2 = load ptr, ptr %coerce.dive4, align 8
  call void @_ZSt8__fill_aIN9__gnu_cxx17__normal_iteratorIPjSt6vectorIjSaIjEEEEiEvT_S7_RKT0_(ptr %1, ptr %2, ptr noundef nonnull align 4 dereferenceable(4) %0)
  ret void
}

; Function Attrs: mustprogress nounwind uwtable
define linkonce_odr hidden ptr @_ZNSt6vectorIjSaIjEE3endEv(ptr noundef nonnull align 8 dereferenceable(24) %this) #5 comdat align 2 {
entry:
  %retval = alloca %"class.__gnu_cxx::__normal_iterator.542", align 8
  %this.addr = alloca ptr, align 8
  store ptr %this, ptr %this.addr, align 8
  %this1 = load ptr, ptr %this.addr, align 8
  %_M_impl = getelementptr inbounds %"struct.std::_Vector_base.534", ptr %this1, i32 0, i32 0
  %_M_finish = getelementptr inbounds %"struct.std::_Vector_base<unsigned int, std::allocator<unsigned int>>::_Vector_impl_data", ptr %_M_impl, i32 0, i32 1
  call void @_ZN9__gnu_cxx17__normal_iteratorIPjSt6vectorIjSaIjEEEC2ERKS1_(ptr noundef nonnull align 8 dereferenceable(8) %retval, ptr noundef nonnull align 8 dereferenceable(8) %_M_finish) #3
  %coerce.dive = getelementptr inbounds %"class.__gnu_cxx::__normal_iterator.542", ptr %retval, i32 0, i32 0
  %0 = load ptr, ptr %coerce.dive, align 8
  ret ptr %0
}

; Function Attrs: mustprogress nounwind uwtable
define linkonce_odr hidden ptr @_ZNSt6vectorIjSaIjEE5beginEv(ptr noundef nonnull align 8 dereferenceable(24) %this) #5 comdat align 2 {
entry:
  %retval = alloca %"class.__gnu_cxx::__normal_iterator.542", align 8
  %this.addr = alloca ptr, align 8
  store ptr %this, ptr %this.addr, align 8
  %this1 = load ptr, ptr %this.addr, align 8
  %_M_impl = getelementptr inbounds %"struct.std::_Vector_base.534", ptr %this1, i32 0, i32 0
  %_M_start = getelementptr inbounds %"struct.std::_Vector_base<unsigned int, std::allocator<unsigned int>>::_Vector_impl_data", ptr %_M_impl, i32 0, i32 0
  call void @_ZN9__gnu_cxx17__normal_iteratorIPjSt6vectorIjSaIjEEEC2ERKS1_(ptr noundef nonnull align 8 dereferenceable(8) %retval, ptr noundef nonnull align 8 dereferenceable(8) %_M_start) #3
  %coerce.dive = getelementptr inbounds %"class.__gnu_cxx::__normal_iterator.542", ptr %retval, i32 0, i32 0
  %0 = load ptr, ptr %coerce.dive, align 8
  ret ptr %0
}

; Function Attrs: mustprogress uwtable
define hidden void @_ZN4cvc58internal6theory11quantifiers21EnumStreamPermutation16PermutationState5resetEv(ptr noundef nonnull align 8 dereferenceable(76) %this) #4 align 2 {
entry:
  %this.addr = alloca ptr, align 8
  %agg.tmp = alloca %"class.__gnu_cxx::__normal_iterator.542", align 8
  %agg.tmp2 = alloca %"class.__gnu_cxx::__normal_iterator.542", align 8
  %ref.tmp = alloca i32, align 4
  %agg.tmp8 = alloca %"class.__gnu_cxx::__normal_iterator.542", align 8
  %agg.tmp11 = alloca %"class.__gnu_cxx::__normal_iterator.542", align 8
  store ptr %this, ptr %this.addr, align 8
  %this1 = load ptr, ptr %this.addr, align 8
  %d_curr_ind = getelementptr inbounds %"class.cvc5::internal::theory::quantifiers::EnumStreamPermutation::PermutationState", ptr %this1, i32 0, i32 3
  store i32 0, ptr %d_curr_ind, align 8
  %d_seq = getelementptr inbounds %"class.cvc5::internal::theory::quantifiers::EnumStreamPermutation::PermutationState", ptr %this1, i32 0, i32 2
  %call = call ptr @_ZNSt6vectorIjSaIjEE5beginEv(ptr noundef nonnull align 8 dereferenceable(24) %d_seq) #3
  %coerce.dive = getelementptr inbounds %"class.__gnu_cxx::__normal_iterator.542", ptr %agg.tmp, i32 0, i32 0
  store ptr %call, ptr %coerce.dive, align 8
  %d_seq3 = getelementptr inbounds %"class.cvc5::internal::theory::quantifiers::EnumStreamPermutation::PermutationState", ptr %this1, i32 0, i32 2
  %call4 = call ptr @_ZNSt6vectorIjSaIjEE3endEv(ptr noundef nonnull align 8 dereferenceable(24) %d_seq3) #3
  %coerce.dive5 = getelementptr inbounds %"class.__gnu_cxx::__normal_iterator.542", ptr %agg.tmp2, i32 0, i32 0
  store ptr %call4, ptr %coerce.dive5, align 8
  store i32 0, ptr %ref.tmp, align 4
  %coerce.dive6 = getelementptr inbounds %"class.__gnu_cxx::__normal_iterator.542", ptr %agg.tmp, i32 0, i32 0
  %0 = load ptr, ptr %coerce.dive6, align 8
  %coerce.dive7 = getelementptr inbounds %"class.__gnu_cxx::__normal_iterator.542", ptr %agg.tmp2, i32 0, i32 0
  %1 = load ptr, ptr %coerce.dive7, align 8
  call void @_ZSt4fillIN9__gnu_cxx17__normal_iteratorIPjSt6vectorIjSaIjEEEEiEvT_S7_RKT0_(ptr %0, ptr %1, ptr noundef nonnull align 4 dereferenceable(4) %ref.tmp)
  %d_last_perm = getelementptr inbounds %"class.cvc5::internal::theory::quantifiers::EnumStreamPermutation::PermutationState", ptr %this1, i32 0, i32 1
  %call9 = call ptr @_ZNSt6vectorIjSaIjEE5beginEv(ptr noundef nonnull align 8 dereferenceable(24) %d_last_perm) #3
  %coerce.dive10 = getelementptr inbounds %"class.__gnu_cxx::__normal_iterator.542", ptr %agg.tmp8, i32 0, i32 0
  store ptr %call9, ptr %coerce.dive10, align 8
  %d_last_perm12 = getelementptr inbounds %"class.cvc5::internal::theory::quantifiers::EnumStreamPermutation::PermutationState", ptr %this1, i32 0, i32 1
  %call13 = call ptr @_ZNSt6vectorIjSaIjEE3endEv(ptr noundef nonnull align 8 dereferenceable(24) %d_last_perm12) #3
  %coerce.dive14 = getelementptr inbounds %"class.__gnu_cxx::__normal_iterator.542", ptr %agg.tmp11, i32 0, i32 0
  store ptr %call13, ptr %coerce.dive14, align 8
  %coerce.dive15 = getelementptr inbounds %"class.__gnu_cxx::__normal_iterator.542", ptr %agg.tmp8, i32 0, i32 0
  %2 = load ptr, ptr %coerce.dive15, align 8
  %coerce.dive16 = getelementptr inbounds %"class.__gnu_cxx::__normal_iterator.542", ptr %agg.tmp11, i32 0, i32 0
  %3 = load ptr, ptr %coerce.dive16, align 8
  call void @_ZSt4iotaIN9__gnu_cxx17__normal_iteratorIPjSt6vectorIjSaIjEEEEiEvT_S7_T0_(ptr %2, ptr %3, i32 noundef 0)
  ret void
}