; Function Attrs: mustprogress nofree norecurse nosync nounwind memory(write, argmem: readwrite, inaccessiblemem: none) uwtable
define hidden void @_ZN4cvc58internal6theory11quantifiers21EnumStreamPermutation16PermutationState5resetEv(ptr nocapture noundef nonnull align 8 dereferenceable(76) %this) local_unnamed_addr #7 align 2 {
entry:
  %d_curr_ind = getelementptr inbounds i8, ptr %this, i64 72
  store i32 0, ptr %d_curr_ind, align 8
  %d_seq = getelementptr inbounds i8, ptr %this, i64 48
  %0 = load ptr, ptr %d_seq, align 8
  %_M_finish.i = getelementptr inbounds i8, ptr %this, i64 56
  %1 = load ptr, ptr %_M_finish.i, align 8
  %cmp.not3.i.i.i.i = icmp eq ptr %0, %1
  br i1 %cmp.not3.i.i.i.i, label %_ZSt4fillIN9__gnu_cxx17__normal_iteratorIPjSt6vectorIjSaIjEEEEiEvT_S7_RKT0_.exit, label %for.body.i.i.i.i.preheader

for.body.i.i.i.i.preheader:                       ; preds = %entry
  %2 = ptrtoint ptr %1 to i64
  %3 = ptrtoint ptr %0 to i64
  %4 = add i64 %2, -4
  %5 = sub i64 %4, %3
  %6 = and i64 %5, -4
  %7 = add i64 %6, 4
  tail call void @llvm.memset.p0.i64(ptr align 4 %0, i8 0, i64 %7, i1 false)
  br label %_ZSt4fillIN9__gnu_cxx17__normal_iteratorIPjSt6vectorIjSaIjEEEEiEvT_S7_RKT0_.exit

_ZSt4fillIN9__gnu_cxx17__normal_iteratorIPjSt6vectorIjSaIjEEEEiEvT_S7_RKT0_.exit: ; preds = %for.body.i.i.i.i.preheader, %entry
  %d_last_perm = getelementptr inbounds i8, ptr %this, i64 24
  %8 = load ptr, ptr %d_last_perm, align 8
  %_M_finish.i1 = getelementptr inbounds i8, ptr %this, i64 32
  %9 = load ptr, ptr %_M_finish.i1, align 8
  %cmp.i.not4.i = icmp eq ptr %8, %9
  br i1 %cmp.i.not4.i, label %_ZSt4iotaIN9__gnu_cxx17__normal_iteratorIPjSt6vectorIjSaIjEEEEiEvT_S7_T0_.exit, label %for.body.i

for.body.i:                                       ; preds = %_ZSt4fillIN9__gnu_cxx17__normal_iteratorIPjSt6vectorIjSaIjEEEEiEvT_S7_RKT0_.exit, %for.body.i
  %__value.addr.06.i = phi i32 [ %inc.i, %for.body.i ], [ 0, %_ZSt4fillIN9__gnu_cxx17__normal_iteratorIPjSt6vectorIjSaIjEEEEiEvT_S7_RKT0_.exit ]
  %__first.sroa.0.05.i = phi ptr [ %incdec.ptr.i.i, %for.body.i ], [ %8, %_ZSt4fillIN9__gnu_cxx17__normal_iteratorIPjSt6vectorIjSaIjEEEEiEvT_S7_RKT0_.exit ]
  store i32 %__value.addr.06.i, ptr %__first.sroa.0.05.i, align 4
  %inc.i = add nuw nsw i32 %__value.addr.06.i, 1
  %incdec.ptr.i.i = getelementptr inbounds i8, ptr %__first.sroa.0.05.i, i64 4
  %cmp.i.not.i = icmp eq ptr %incdec.ptr.i.i, %9
  br i1 %cmp.i.not.i, label %_ZSt4iotaIN9__gnu_cxx17__normal_iteratorIPjSt6vectorIjSaIjEEEEiEvT_S7_T0_.exit, label %for.body.i, !llvm.loop !30

_ZSt4iotaIN9__gnu_cxx17__normal_iteratorIPjSt6vectorIjSaIjEEEEiEvT_S7_T0_.exit: ; preds = %for.body.i, %_ZSt4fillIN9__gnu_cxx17__normal_iteratorIPjSt6vectorIjSaIjEEEEiEvT_S7_RKT0_.exit
  ret void
}